EXPORTS
??0MaxMorphModifier@@QAE@PAVModifier@@@Z
??0MaxMorphModifier@@QAE@XZ
??0VertexNormalsControl@@QAE@XZ
??1MaxMorphModifier@@QAE@XZ
??4morphChannel@@QAEXABV0@@Z
?AddProgessiveMorph@IMorphClass@@QAEHPAVMorphR3@@HPAVINode@@@Z
?AddProgressiveMorphTarget@MaxMorphChannel@@QAE_NPAVINode@@@Z
?AllocBuffers@morphChannel@@QAEXHH@Z
?AreWeCached@morphCache@@QAEHXZ
?BuildFromNode@MaxMorphChannel@@QAEXPAVINode@@_NH1@Z
?ChannelOp@MorphR3@@QAEXHHH@Z
?Clamp_chanNum@MorphR3@@QAEXXZ
?Clamp_listSel@M3MatDlg@@QAEXXZ
?DeleteCache@MaxMorphModifier@@QAE_NXZ
?DeleteChannel@MaxMorphChannel@@QAE_NXZ
?DeleteProgessiveMorph@IMorphClass@@QAEHPAVMorphR3@@HH@Z
?DeleteProgressiveMorphTarget@MaxMorphChannel@@QAE_NH@Z
?EnterMode@GetMorphMod@@UAEXXZ
?EnterMode@GetMorphNode@@UAEXPAVIObjParam@@@Z
?ExitMode@GetMorphMod@@UAEXXZ
?ExitMode@GetMorphNode@@UAEXPAVIObjParam@@@Z
?Filter@GetMorphMod@@UAEHPAVINode@@@Z
?Filter@GetMorphNode@@UAEHPAVINode@@@Z
?GetFilter@GetMorphNode@@UAEPAVPickNodeCallback@@XZ
?GetIncrements@MorphR3@@QAEMXZ
?GetModifier@MaxMorphModifier@@QBEPAVModifier@@XZ
?GetMorphChannel@MaxMorphModifier@@QBE?AVMaxMorphChannel@@H@Z
?GetMorphPoint@MaxMorphChannel@@QBE?AVPoint3@@H@Z
?GetMorphPointDelta@MaxMorphChannel@@QBE?AVPoint3@@H@Z
?GetMorphPointWeight@MaxMorphChannel@@QBENH@Z
?GetMorphTarget@MaxMorphChannel@@QBEPAVINode@@XZ
?GetMorphWeight@MaxMorphChannel@@QBEMH@Z
?GetMorphWeightController@MaxMorphChannel@@QBEPAVControl@@XZ
?GetName@MaxMorphChannel@@QBEPB_WXZ
?GetProgressiveMorphPoint@MaxMorphChannel@@QBE?AVPoint3@@HH@Z
?GetProgressiveMorphTarget@MaxMorphChannel@@QBEPAVINode@@H@Z
?GetProgressiveMorphTension@MaxMorphChannel@@QBEMXZ
?GetProgressiveMorphWeight@MaxMorphChannel@@QBEMH@Z
?HasData@MaxMorphChannel@@QBE_NXZ
?HitTest@GetMorphNode@@UAEHPAVIObjParam@@PAUHWND__@@PAVViewExp@@VIPoint2@@H@Z
?HoldChannel@IMorphClass@@QAEXPAVMorphR3@@H@Z
?HoldMarkers@IMorphClass@@QAEXPAVMorphR3@@@Z
?Init@MaxMorphModifier@@QAE_NPAVModifier@@@Z
?IsActive@MaxMorphChannel@@QBE_NXZ
?IsCacheEmpty@MaxMorphModifier@@QBE_NXZ
?IsValid@MaxMorphChannel@@QBE_NXZ
?IsValid@MaxMorphModifier@@QBE_NXZ
?IsValidMorphModifier@MaxMorphModifier@@SA_NPAVModifier@@@Z
?IsValidMorphPointIndex@MaxMorphChannel@@QBEHH@Z
?IsValidMorphTarget@MaxMorphModifier@@QBE_NPAVINode@@H@Z
?IsValidProgressiveMorphTargetIndex@MaxMorphChannel@@QBE_NH@Z
?Load@morphChannel@@QAE?AW4IOResult@@PAVILoad@@@Z
?MakeCache@morphCache@@QAEXPAVObject@@@Z
?MoveMorphChannel@MaxMorphModifier@@QAE_NHH@Z
?NukeCache@morphCache@@QAEXXZ
?NumMorphChannels@MaxMorphModifier@@QBEHXZ
?NumMorphPoints@MaxMorphChannel@@QBEHXZ
?NumProgressiveMorphTargets@MaxMorphChannel@@QBEHXZ
?Pick@GetMorphMod@@UAEHPAVINode@@@Z
?Pick@GetMorphNode@@UAEHPAVIObjParam@@PAVViewExp@@@Z
?RebuildCache@MaxMorphModifier@@QAE_NXZ
?RebuildCacheFromObject@MaxMorphModifier@@QAE_NPAVObject@@@Z
?RefreshChannelsUI@MaxMorphModifier@@QBEXXZ
?Reset@MaxMorphChannel@@QAEX_N0H@Z
?ResetMe@morphChannel@@QAEXXZ
?RightClick@GetMorphNode@@UAEHPAVIObjParam@@PAVViewExp@@@Z
?Save@morphChannel@@QAE?AW4IOResult@@PAVISave@@@Z
?SetActive@MaxMorphChannel@@QAEX_N@Z
?SetMorphPoint@MaxMorphChannel@@QAEXHABVPoint3@@@Z
?SetMorphPointDelta@MaxMorphChannel@@QAEXHABVPoint3@@@Z
?SetMorphPointWeight@MaxMorphChannel@@QAEXHN@Z
?SetMorphTarget@MaxMorphChannel@@QAE_NPAVINode@@H@Z
?SetMorphWeight@MaxMorphChannel@@QBE_NHM@Z
?SetName@MaxMorphChannel@@QAEXPB_W@Z
?SetProgressiveMorphTension@MaxMorphChannel@@QAE_NM@Z
?SetProgressiveMorphWeight@MaxMorphChannel@@QAE_NHM@Z
?SetTension@IMorphClass@@QAEXPAVMorphR3@@HM@Z
?SortProgressiveMorphTargets@MaxMorphChannel@@QAE_NH@Z
?SortProgressiveTarget@IMorphClass@@QAEXPAVMorphR3@@HH@Z
?SwapMorphChannels@MaxMorphModifier@@QAE_NHH@Z
?SwapMorphTargets@MaxMorphChannel@@QAE_NHH@Z
?SwapMorphs@IMorphClass@@QAEXPAVMorphR3@@HHH@Z
?SwapPTargets@IMorphClass@@QAEXPAVMorphR3@@HHH_N@Z
?TrimDown@MorphR3@@QAEMMH@Z
?UpdateMorphInfo@M3MatDlg@@QAEXH@Z
?Update_SpinnerIncrements@MorphR3@@QAEXXZ
?Update_channelFULL@MorphR3@@QAEXXZ
?Update_channelInfo@MorphR3@@QAEXXZ
?Update_channelLimits@MorphR3@@QAEXXZ
?Update_channelMarkers@MorphR3@@QAEXXZ
?Update_channelNames@MorphR3@@QAEXXZ
?Update_channelParams@MorphR3@@QAEXXZ
?Update_channelValues@MorphR3@@QAEXXZ
?Update_colorIndicators@MorphR3@@QAEXXZ
?VScroll@M3MatDlg@@QAEXHF@Z
?VScroll@MorphR3@@QAEXHF@Z
?buildFromNode@morphChannel@@QAEXPAVINode@@HHH@Z
?getMemSize@morphChannel@@QAEMXZ
?rebuildChannel@morphChannel@@QAEXXZ
?SetName@MaxMorphChannel@@QAEXPBD@Z
?GetName@MaxMorphChannel@@QBEPBDXZ
