EXPORTS
??0MaxMorphModifier@@QEAA@PEAVModifier@@@Z
??0MaxMorphModifier@@QEAA@XZ
??0VertexNormalsControl@@QEAA@XZ
??1MaxMorphModifier@@QEAA@XZ
??4morphChannel@@QEAAXAEBV0@@Z
?Add100Channels@MorphR3@@QEAAXXZ
?AddProgessiveMorph@IMorphClass@@QEAAHPEAVMorphR3@@HPEAVINode@@@Z
?AddProgressiveMorphTarget@MaxMorphChannel@@QEAA_NPEAVINode@@@Z
?AllocBuffers@morphChannel@@QEAAXHH@Z
?AreWeCached@morphCache@@QEAAHXZ
?BuildFromNode@MaxMorphChannel@@QEAAXPEAVINode@@_NH1@Z
?ChannelOp@MorphR3@@QEAAXHHH@Z
?Clamp_chanNum@MorphR3@@QEAAXXZ
?Clamp_listSel@M3MatDlg@@QEAAXXZ
?DeleteCache@MaxMorphModifier@@QEAA_NXZ
?DeleteChannel@MaxMorphChannel@@QEAA_NXZ
?DeleteProgessiveMorph@IMorphClass@@QEAAHPEAVMorphR3@@HH@Z
?DeleteProgressiveMorphTarget@MaxMorphChannel@@QEAA_NH@Z
?EnterMode@GetMorphMod@@UEAAXXZ
?EnterMode@GetMorphNode@@UEAAXPEAVIObjParam@@@Z
?ExitMode@GetMorphMod@@UEAAXXZ
?ExitMode@GetMorphNode@@UEAAXPEAVIObjParam@@@Z
?Filter@GetMorphMod@@UEAAHPEAVINode@@@Z
?Filter@GetMorphNode@@UEAAHPEAVINode@@@Z
?GetChannelOffset@MorphR3@@QEAAIH@Z
?GetFilter@GetMorphNode@@UEAAPEAVPickNodeCallback@@XZ
?GetIncrements@MorphR3@@QEAAMXZ
?GetModifier@MaxMorphModifier@@QEBAPEAVModifier@@XZ
?GetMorphChannel@MaxMorphModifier@@QEBA?AVMaxMorphChannel@@H@Z
?GetMorphPoint@MaxMorphChannel@@QEBA?AVPoint3@@H@Z
?GetMorphPointDelta@MaxMorphChannel@@QEBA?AVPoint3@@H@Z
?GetMorphPointWeight@MaxMorphChannel@@QEBANH@Z
?GetMorphTarget@MaxMorphChannel@@QEBAPEAVINode@@XZ
?GetMorphWeight@MaxMorphChannel@@QEBAMH@Z
?GetMorphWeightController@MaxMorphChannel@@QEBAPEAVControl@@XZ
?GetName@MaxMorphChannel@@QEBAPEB_WXZ
?GetProgressiveMorphPoint@MaxMorphChannel@@QEBA?AVPoint3@@HH@Z
?GetProgressiveMorphTarget@MaxMorphChannel@@QEBAPEAVINode@@H@Z
?GetProgressiveMorphTension@MaxMorphChannel@@QEBAMXZ
?GetProgressiveMorphWeight@MaxMorphChannel@@QEBAMH@Z
?GetRefIDOffset@MorphR3@@QEAAIH@Z
?HasData@MaxMorphChannel@@QEBA_NXZ
?HitTest@GetMorphNode@@UEAAHPEAVIObjParam@@PEAUHWND__@@PEAVViewExp@@VIPoint2@@H@Z
?HoldChannel@IMorphClass@@QEAAXPEAVMorphR3@@H@Z
?HoldMarkers@IMorphClass@@QEAAXPEAVMorphR3@@@Z
?Init@MaxMorphModifier@@QEAA_NPEAVModifier@@@Z
?IsActive@MaxMorphChannel@@QEBA_NXZ
?IsCacheEmpty@MaxMorphModifier@@QEBA_NXZ
?IsValid@MaxMorphChannel@@QEBA_NXZ
?IsValid@MaxMorphModifier@@QEBA_NXZ
?IsValidMorphModifier@MaxMorphModifier@@SA_NPEAVModifier@@@Z
?IsValidMorphPointIndex@MaxMorphChannel@@QEBAHH@Z
?IsValidMorphTarget@MaxMorphModifier@@QEBA_NPEAVINode@@H@Z
?IsValidProgressiveMorphTargetIndex@MaxMorphChannel@@QEBA_NH@Z
?Load@morphChannel@@QEAA?AW4IOResult@@PEAVILoad@@@Z
?MakeCache@morphCache@@QEAAXPEAVObject@@@Z
?MoveMorphChannel@MaxMorphModifier@@QEAA_NHH@Z
?NukeCache@morphCache@@QEAAXXZ
?NumMaxProgressiveTargets@MaxMorphChannel@@SAHXZ
?NumMorphChannels@MaxMorphModifier@@QEBAHXZ
?NumMorphPoints@MaxMorphChannel@@QEBAHXZ
?NumProgressiveMorphTargets@MaxMorphChannel@@QEBAHXZ
?Pick@GetMorphMod@@UEAAHPEAVINode@@@Z
?Pick@GetMorphNode@@UEAAHPEAVIObjParam@@PEAVViewExp@@@Z
?RebuildCache@MaxMorphModifier@@QEAA_NXZ
?RebuildCacheFromObject@MaxMorphModifier@@QEAA_NPEAVObject@@@Z
?RefreshChannelsUI@MaxMorphModifier@@QEBAXXZ
?Reset@MaxMorphChannel@@QEAAX_N0H@Z
?ResetMe@morphChannel@@QEAAXXZ
?RightClick@GetMorphNode@@UEAAHPEAVIObjParam@@PEAVViewExp@@@Z
?Save@morphChannel@@QEAA?AW4IOResult@@PEAVISave@@@Z
?SetActive@MaxMorphChannel@@QEAAX_N@Z
?SetMorphPoint@MaxMorphChannel@@QEAAXHAEBVPoint3@@@Z
?SetMorphPointDelta@MaxMorphChannel@@QEAAXHAEBVPoint3@@@Z
?SetMorphPointWeight@MaxMorphChannel@@QEAAXHN@Z
?SetMorphTarget@MaxMorphChannel@@QEAA_NPEAVINode@@H@Z
?SetMorphWeight@MaxMorphChannel@@QEBA_NHM@Z
?SetName@MaxMorphChannel@@QEAAXPEB_W@Z
?SetNumChannels@MaxMorphModifier@@QEAAXH@Z
?SetProgressiveMorphTension@MaxMorphChannel@@QEAA_NM@Z
?SetProgressiveMorphWeight@MaxMorphChannel@@QEAA_NHM@Z
?SetTension@IMorphClass@@QEAAXPEAVMorphR3@@HM@Z
?SortProgressiveMorphTargets@MaxMorphChannel@@QEAA_NH@Z
?SortProgressiveTarget@IMorphClass@@QEAAXPEAVMorphR3@@HH@Z
?SwapMorphChannels@MaxMorphModifier@@QEAA_NHH@Z
?SwapMorphTargets@MaxMorphChannel@@QEAA_NHH@Z
?SwapMorphs@IMorphClass@@QEAAXPEAVMorphR3@@HHH@Z
?SwapPTargets@IMorphClass@@QEAAXPEAVMorphR3@@HHH_N@Z
?TrimDown@MorphR3@@QEAAMMH@Z
?UpdateMorphInfo@M3MatDlg@@QEAAXH@Z
?Update_SpinnerIncrements@MorphR3@@QEAAXXZ
?Update_channelFULL@MorphR3@@QEAAXXZ
?Update_channelInfo@MorphR3@@QEAAXXZ
?Update_channelLimits@MorphR3@@QEAAXXZ
?Update_channelMarkers@MorphR3@@QEAAXXZ
?Update_channelNames@MorphR3@@QEAAXXZ
?Update_channelParams@MorphR3@@QEAAXXZ
?Update_channelValues@MorphR3@@QEAAXXZ
?Update_colorIndicators@MorphR3@@QEAAXXZ
?VScroll@M3MatDlg@@QEAAXHF@Z
?VScroll@MorphR3@@QEAAXHF@Z
?buildFromNode@morphChannel@@QEAAXPEAVINode@@HHHH@Z
?getMemSize@morphChannel@@QEAAMXZ
?rebuildChannel@morphChannel@@QEAAXXZ
?SetName@MaxMorphChannel@@QEAAXPEBD@Z
?GetName@MaxMorphChannel@@QEBAPEBDXZ